(dp0
S'e'
p1
(dp2
S'digit2answers'
p3
(lp4
I1
asS'digit7attempted'
p5
I2
sS'digit6attempted'
p6
I2
sS'digit0attempted'
p7
I1
sS'digit8answers'
p8
(lp9
I1
asS'logins'
p10
I2
sS'digit0answers'
p11
(lp12
I1
asS'digit9answers'
p13
(lp14
I1
asS'digit2attempted'
p15
I1
sS'digit1answers'
p16
(lp17
I1
aI0
asS'aggregateAnswers'
p18
(lp19
I1
aI0
aI1
aI1
aI0
aI1
aI1
aI1
aI1
aI0
aI0
asS'digit8attempted'
p20
I1
sS'digit3answers'
p21
(lp22
sS'digit7answers'
p23
(lp24
I1
aI0
asS'digit4attempted'
p25
I1
sS'digit1attempted'
p26
I2
sS'digit5answers'
p27
(lp28
sS'digit6answers'
p29
(lp30
I0
aI1
asS'digit4answers'
p31
(lp32
I0
asS'digit5attempted'
p33
I0
sS'digit9attempted'
p34
I1
sS'digit3attempted'
p35
I0
ss.