(dp0
S'p'
p1
(dp2
S'digit1answers'
p3
(lp4
sS'digit2answers'
p5
(lp6
sS'digit4attempted'
p7
I0
sS'digit6answers'
p8
(lp9
sS'logins'
p10
I6
sS'digit7attempted'
p11
I0
sS'digit2attempted'
p12
I0
sS'digit4answers'
p13
(lp14
sS'digit6attempted'
p15
I0
sS'digit5attempted'
p16
I0
sS'digit0attempted'
p17
I3
sS'digit8attempted'
p18
I0
sS'digit9attempted'
p19
I0
sS'digit3attempted'
p20
I0
sS'digit0answers'
p21
(lp22
I1
aI1
aI1
aI1
aI1
aI1
aI1
aI1
aI1
aI1
aI1
aI1
aI1
aI1
aI1
aI1
aI1
aI1
aI1
aI0
aI1
aI1
aI1
aI1
aI1
aI1
aI1
aI1
aI1
aI1
aI1
aI1
aI1
aI1
aI1
aI1
aI1
aI1
aI0
aI1
aI1
aI1
aI1
aI1
aI1
aI1
aI1
aI1
aI1
aI1
aI1
aI1
aI1
aI1
aI1
aI1
aI1
aI1
aI1
aI1
aI1
aI1
aI1
aI1
aI0
asS'digit9answers'
p23
(lp24
sS'digit5answers'
p25
(lp26
sS'digit1attempted'
p27
I0
sS'digit7answers'
p28
(lp29
sS'digit3answers'
p30
(lp31
sS'digit8answers'
p32
(lp33
ssS'lol'
p34
(dp35
S'digit1answers'
p36
(lp37
sS'digit2answers'
p38
(lp39
sS'digit4attempted'
p40
I0
sS'digit6answers'
p41
(lp42
sS'logins'
p43
I1
sS'digit7attempted'
p44
I0
sS'digit2attempted'
p45
I0
sS'digit4answers'
p46
(lp47
sS'digit6attempted'
p48
I0
sS'digit5attempted'
p49
I0
sS'digit0attempted'
p50
I3
sS'digit8attempted'
p51
I0
sS'digit9attempted'
p52
I0
sS'digit3attempted'
p53
I0
sS'digit0answers'
p54
(lp55
I1
aI1
aI1
aI1
aI1
aI1
aI1
aI1
aI1
aI1
aI0
aI0
aI1
aI1
aI1
aI1
aI1
aI1
aI1
aI0
asS'digit9answers'
p56
(lp57
sS'digit5answers'
p58
(lp59
sS'digit1attempted'
p60
I0
sS'digit7answers'
p61
(lp62
sS'digit3answers'
p63
(lp64
sS'digit8answers'
p65
(lp66
ssS'everest'
p67
(dp68
S'digit1answers'
p69
(lp70
sS'digit2answers'
p71
(lp72
sS'digit4attempted'
p73
I0
sS'digit6answers'
p74
(lp75
sS'logins'
p76
I1
sS'digit7attempted'
p77
I0
sS'digit2attempted'
p78
I0
sS'digit4answers'
p79
(lp80
sS'digit6attempted'
p81
I0
sS'digit5attempted'
p82
I0
sS'digit0attempted'
p83
I0
sS'digit8attempted'
p84
I0
sS'digit9attempted'
p85
I0
sS'digit3attempted'
p86
I0
sS'digit0answers'
p87
(lp88
sS'digit9answers'
p89
(lp90
sS'digit5answers'
p91
(lp92
sS'digit1attempted'
p93
I0
sS'digit7answers'
p94
(lp95
sS'digit3answers'
p96
(lp97
sS'digit8answers'
p98
(lp99
ss.