(dp0
S''
p1
(dp2
S'digit2answers'
p3
(lp4
I1
asS'digit7attempted'
p5
I0
sS'digit6attempted'
p6
I0
sS'digit0attempted'
p7
I0
sS'digit8answers'
p8
(lp9
sS'logins'
p10
I1
sS'digit0answers'
p11
(lp12
sS'digit9answers'
p13
(lp14
sS'digit2attempted'
p15
I1
sS'digit1answers'
p16
(lp17
sS'aggregateAnswers'
p18
(lp19
I1
aI1
asS'digit8attempted'
p20
I0
sS'digit3answers'
p21
(lp22
sS'digit7answers'
p23
(lp24
sS'digit4attempted'
p25
I1
sS'digit1attempted'
p26
I0
sS'digit5answers'
p27
(lp28
sS'digit6answers'
p29
(lp30
sS'digit4answers'
p31
(lp32
I1
asS'digit5attempted'
p33
I0
sS'digit9attempted'
p34
I0
sS'digit3attempted'
p35
I0
ssS'e'
p36
(dp37
S'digit2answers'
p38
(lp39
I1
aI1
asS'digit7attempted'
p40
I3
sS'digit6attempted'
p41
I2
sS'digit0attempted'
p42
I3
sS'digit8answers'
p43
(lp44
I0
aI1
aI1
aI1
aI0
asS'logins'
p45
I8
sS'digit0answers'
p46
(lp47
I0
aI1
aI1
asS'digit9answers'
p48
(lp49
I1
aI1
asS'digit2attempted'
p50
I2
sS'digit1answers'
p51
(lp52
I0
aI1
aI0
asS'aggregateAnswers'
p53
(lp54
I1
aI1
aI0
aI1
aI1
aI1
aI1
aI1
aI0
aI1
aI1
aI0
aI1
aI1
aI1
aI0
aI0
aI1
aI1
aI1
aI1
aI1
aI0
aI1
aI0
aI1
aI1
aI1
asS'digit8attempted'
p55
I5
sS'digit3answers'
p56
(lp57
I1
aI1
aI1
aI1
asS'digit7answers'
p58
(lp59
I1
aI0
aI1
asS'digit4attempted'
p60
I1
sS'digit1attempted'
p61
I3
sS'digit5answers'
p62
(lp63
I1
aI1
aI1
asS'digit6answers'
p64
(lp65
I1
aI0
asS'digit4answers'
p66
(lp67
I1
asS'digit5attempted'
p68
I3
sS'digit9attempted'
p69
I2
sS'digit3attempted'
p70
I4
ssS'd'
p71
(dp72
S'digit2answers'
p73
(lp74
I1
aI1
aI1
asS'digit7attempted'
p75
I0
sS'digit6attempted'
p76
I0
sS'digit0attempted'
p77
I2
sS'digit8answers'
p78
(lp79
I0
asS'logins'
p80
I2
sS'digit0answers'
p81
(lp82
I1
aI1
asS'digit9answers'
p83
(lp84
sS'digit2attempted'
p85
I3
sS'digit1answers'
p86
(lp87
I1
aI1
asS'aggregateAnswers'
p88
(lp89
I0
aI1
aI1
aI1
aI1
aI1
aI0
aI1
aI1
aI1
aI1
aI1
aI1
aI0
asS'digit8attempted'
p90
I1
sS'digit3answers'
p91
(lp92
I1
aI0
asS'digit7answers'
p93
(lp94
sS'digit4attempted'
p95
I2
sS'digit1attempted'
p96
I2
sS'digit5answers'
p97
(lp98
I1
aI1
asS'digit6answers'
p99
(lp100
sS'digit4answers'
p101
(lp102
I1
aI0
asS'digit5attempted'
p103
I2
sS'digit9attempted'
p104
I0
sS'digit3attempted'
p105
I2
ssS'g'
p106
(dp107
S'digit2answers'
p108
(lp109
I1
aI1
asS'digit7attempted'
p110
I0
sS'digit6attempted'
p111
I1
sS'digit0attempted'
p112
I4
sS'digit8answers'
p113
(lp114
I1
asS'digit8attempted'
p115
I1
sS'digit0answers'
p116
(lp117
I1
aI1
aI1
aI1
asS'digit9answers'
p118
(lp119
I1
asS'digit3answers'
p120
(lp121
I1
asS'digit1answers'
p122
(lp123
sS'aggregateAnswers'
p124
(lp125
I1
aI1
aI0
aI1
aI1
aI1
aI1
aI1
aI1
aI1
aI1
aI1
aI1
aI1
asS'logins'
p126
I3
sS'digit2attempted'
p127
I2
sS'digit7answers'
p128
(lp129
sS'digit5answers'
p130
(lp131
I1
asS'digit1attempted'
p132
I0
sS'digit4attempted'
p133
I3
sS'digit6answers'
p134
(lp135
I0
asS'digit4answers'
p136
(lp137
I1
aI1
aI1
asS'digit5attempted'
p138
I1
sS'digit9attempted'
p139
I1
sS'digit3attempted'
p140
I1
ssS'f'
p141
(dp142
S'digit2answers'
p143
(lp144
sS'digit7attempted'
p145
I0
sS'digit6attempted'
p146
I0
sS'digit0attempted'
p147
I2
sS'digit8answers'
p148
(lp149
sS'logins'
p150
I2
sS'digit0answers'
p151
(lp152
I1
aI1
asS'digit9answers'
p153
(lp154
sS'digit2attempted'
p155
I0
sS'digit1answers'
p156
(lp157
sS'aggregateAnswers'
p158
(lp159
I1
aI1
aI1
aI1
aI1
asS'digit8attempted'
p160
I0
sS'digit3answers'
p161
(lp162
I1
asS'digit7answers'
p163
(lp164
sS'digit4attempted'
p165
I2
sS'digit1attempted'
p166
I0
sS'digit5answers'
p167
(lp168
sS'digit6answers'
p169
(lp170
sS'digit4answers'
p171
(lp172
I1
aI1
asS'digit5attempted'
p173
I0
sS'digit9attempted'
p174
I0
sS'digit3attempted'
p175
I1
ssS'h'
p176
(dp177
S'digit2answers'
p178
(lp179
I1
asS'digit7attempted'
p180
I0
sS'digit6attempted'
p181
I0
sS'digit0attempted'
p182
I0
sS'digit8answers'
p183
(lp184
sS'digit8attempted'
p185
I0
sS'digit0answers'
p186
(lp187
sS'digit9answers'
p188
(lp189
sS'digit3answers'
p190
(lp191
I1
asS'digit1answers'
p192
(lp193
sS'aggregateAnswers'
p194
(lp195
I1
aI1
aI1
aI1
aI0
asS'logins'
p196
I1
sS'digit2attempted'
p197
I1
sS'digit7answers'
p198
(lp199
sS'digit5answers'
p200
(lp201
I1
asS'digit1attempted'
p202
I0
sS'digit4attempted'
p203
I2
sS'digit6answers'
p204
(lp205
sS'digit4answers'
p206
(lp207
I1
aI0
asS'digit5attempted'
p208
I1
sS'digit9attempted'
p209
I0
sS'digit3attempted'
p210
I1
ssS'carly'
p211
(dp212
S'digit2answers'
p213
(lp214
I1
asS'digit7attempted'
p215
I4
sS'digit6attempted'
p216
I1
sS'digit0attempted'
p217
I6
sS'digit8answers'
p218
(lp219
I0
aI0
aI1
asS'digit8attempted'
p220
I3
sS'digit0answers'
p221
(lp222
I0
aI1
aI0
aI0
aI1
aI1
asS'digit9answers'
p223
(lp224
I1
aI0
aI1
aI1
aI0
asS'digit3answers'
p225
(lp226
I1
aI0
aI1
aI0
asS'digit1answers'
p227
(lp228
I1
aI0
aI1
aI1
asS'aggregateAnswers'
p229
(lp230
I1
aI1
aI1
aI0
aI0
aI0
aI1
aI1
aI0
aI0
aI1
aI1
aI1
aI0
aI1
aI0
aI0
aI1
aI1
aI1
aI0
aI1
aI0
aI1
aI0
aI1
aI1
aI0
aI1
aI1
aI0
aI1
asS'logins'
p231
I1
sS'digit2attempted'
p232
I1
sS'digit7answers'
p233
(lp234
I0
aI0
aI1
aI0
asS'digit5answers'
p235
(lp236
I1
aI1
asS'digit1attempted'
p237
I4
sS'digit4attempted'
p238
I2
sS'digit6answers'
p239
(lp240
I1
asS'digit4answers'
p241
(lp242
I1
aI1
asS'digit5attempted'
p243
I2
sS'digit9attempted'
p244
I5
sS'digit3attempted'
p245
I4
ssS'Rachel'
p246
(dp247
S'digit2answers'
p248
(lp249
sS'digit7attempted'
p250
I5
sS'digit6attempted'
p251
I2
sS'digit0attempted'
p252
I1
sS'digit8answers'
p253
(lp254
I0
aI1
asS'logins'
p255
I1
sS'digit0answers'
p256
(lp257
I1
asS'digit9answers'
p258
(lp259
I1
aI1
aI1
aI1
aI1
asS'digit2attempted'
p260
I0
sS'digit1answers'
p261
(lp262
I1
aI1
asS'aggregateAnswers'
p263
(lp264
I0
aI0
aI0
aI0
aI1
aI1
aI0
aI0
aI1
aI1
aI1
aI1
aI1
aI1
aI0
aI1
aI1
aI0
aI1
aI1
aI1
asS'digit8attempted'
p265
I2
sS'digit3answers'
p266
(lp267
I0
asS'digit7answers'
p268
(lp269
I0
aI0
aI0
aI0
aI0
asS'digit4attempted'
p270
I2
sS'digit1attempted'
p271
I2
sS'digit5answers'
p272
(lp273
I1
asS'digit6answers'
p274
(lp275
I1
aI1
asS'digit4answers'
p276
(lp277
I0
aI1
asS'digit5attempted'
p278
I1
sS'digit9attempted'
p279
I5
sS'digit3attempted'
p280
I1
ssS'l'
p281
(dp282
S'digit2answers'
p283
(lp284
I1
asS'digit7attempted'
p285
I1
sS'digit6attempted'
p286
I0
sS'digit0attempted'
p287
I0
sS'digit8answers'
p288
(lp289
sS'digit8attempted'
p290
I0
sS'digit0answers'
p291
(lp292
sS'digit9answers'
p293
(lp294
sS'digit3answers'
p295
(lp296
I1
aI1
asS'digit1answers'
p297
(lp298
sS'aggregateAnswers'
p299
(lp300
I1
aI1
aI1
aI0
asS'logins'
p301
I2
sS'digit2attempted'
p302
I1
sS'digit7answers'
p303
(lp304
I0
asS'digit5answers'
p305
(lp306
sS'digit1attempted'
p307
I0
sS'digit4attempted'
p308
I0
sS'digit6answers'
p309
(lp310
sS'digit4answers'
p311
(lp312
sS'digit5attempted'
p313
I0
sS'digit9attempted'
p314
I0
sS'digit3attempted'
p315
I2
ssS'y'
p316
(dp317
S'digit2answers'
p318
(lp319
sS'digit7attempted'
p320
I0
sS'digit6attempted'
p321
I0
sS'digit0attempted'
p322
I0
sS'digit8answers'
p323
(lp324
sS'logins'
p325
I1
sS'digit0answers'
p326
(lp327
sS'digit9answers'
p328
(lp329
sS'digit2attempted'
p330
I0
sS'digit1answers'
p331
(lp332
sS'aggregateAnswers'
p333
(lp334
sS'digit8attempted'
p335
I0
sS'digit3answers'
p336
(lp337
sS'digit7answers'
p338
(lp339
sS'digit4attempted'
p340
I0
sS'digit1attempted'
p341
I0
sS'digit5answers'
p342
(lp343
sS'digit6answers'
p344
(lp345
sS'digit4answers'
p346
(lp347
sS'digit5attempted'
p348
I0
sS'digit9attempted'
p349
I0
sS'digit3attempted'
p350
I0
ssS'p'
p351
(dp352
S'digit2answers'
p353
(lp354
I1
asS'digit7attempted'
p355
I2
sS'digit6attempted'
p356
I0
sS'digit0attempted'
p357
I2
sS'digit8answers'
p358
(lp359
I1
asS'logins'
p360
I1
sS'digit0answers'
p361
(lp362
I0
aI1
asS'digit9answers'
p363
(lp364
I1
asS'digit2attempted'
p365
I1
sS'digit1answers'
p366
(lp367
sS'aggregateAnswers'
p368
(lp369
I1
aI0
aI1
aI1
aI1
aI1
aI0
aI1
aI1
aI1
asS'digit8attempted'
p370
I1
sS'digit3answers'
p371
(lp372
I1
asS'digit7answers'
p373
(lp374
I1
aI1
asS'digit4attempted'
p375
I1
sS'digit1attempted'
p376
I0
sS'digit5answers'
p377
(lp378
I1
asS'digit6answers'
p379
(lp380
sS'digit4answers'
p381
(lp382
I0
asS'digit5attempted'
p383
I1
sS'digit9attempted'
p384
I1
sS'digit3attempted'
p385
I1
ssS't'
p386
(dp387
S'digit2answers'
p388
(lp389
sS'digit7attempted'
p390
I0
sS'digit6attempted'
p391
I0
sS'digit0attempted'
p392
I0
sS'digit8answers'
p393
(lp394
sS'logins'
p395
I1
sS'digit0answers'
p396
(lp397
sS'digit9answers'
p398
(lp399
sS'digit2attempted'
p400
I0
sS'digit1answers'
p401
(lp402
I1
asS'aggregateAnswers'
p403
(lp404
I1
aI1
asS'digit8attempted'
p405
I0
sS'digit3answers'
p406
(lp407
I1
asS'digit7answers'
p408
(lp409
sS'digit4attempted'
p410
I0
sS'digit1attempted'
p411
I1
sS'digit5answers'
p412
(lp413
sS'digit6answers'
p414
(lp415
sS'digit4answers'
p416
(lp417
sS'digit5attempted'
p418
I0
sS'digit9attempted'
p419
I0
sS'digit3attempted'
p420
I1
ssS'yert'
p421
(dp422
S'digit2answers'
p423
(lp424
I1
asS'digit7attempted'
p425
I1
sS'digit6attempted'
p426
I0
sS'digit0attempted'
p427
I1
sS'digit8answers'
p428
(lp429
I1
asS'digit8attempted'
p430
I1
sS'digit0answers'
p431
(lp432
I1
asS'digit9answers'
p433
(lp434
I0
aI1
aI0
asS'digit3answers'
p435
(lp436
I1
aI1
asS'digit1answers'
p437
(lp438
I1
aI1
asS'aggregateAnswers'
p439
(lp440
I1
aI1
aI0
aI1
aI1
aI1
aI1
aI1
aI1
aI0
aI1
aI1
asS'logins'
p441
I1
sS'digit2attempted'
p442
I1
sS'digit7answers'
p443
(lp444
I1
asS'digit5answers'
p445
(lp446
sS'digit1attempted'
p447
I2
sS'digit4attempted'
p448
I1
sS'digit6answers'
p449
(lp450
sS'digit4answers'
p451
(lp452
I1
asS'digit5attempted'
p453
I0
sS'digit9attempted'
p454
I3
sS'digit3attempted'
p455
I2
ssS'k'
p456
(dp457
S'digit2answers'
p458
(lp459
sS'digit7attempted'
p460
I1
sS'digit6attempted'
p461
I0
sS'digit0attempted'
p462
I0
sS'digit8answers'
p463
(lp464
I1
asS'logins'
p465
I1
sS'digit0answers'
p466
(lp467
sS'digit9answers'
p468
(lp469
sS'digit2attempted'
p470
I0
sS'digit1answers'
p471
(lp472
I1
asS'aggregateAnswers'
p473
(lp474
I1
aI1
aI1
aI0
asS'digit8attempted'
p475
I1
sS'digit3answers'
p476
(lp477
sS'digit7answers'
p478
(lp479
I0
asS'digit4attempted'
p480
I0
sS'digit1attempted'
p481
I1
sS'digit5answers'
p482
(lp483
I1
asS'digit6answers'
p484
(lp485
sS'digit4answers'
p486
(lp487
sS'digit5attempted'
p488
I1
sS'digit9attempted'
p489
I0
sS'digit3attempted'
p490
I0
ss.