(dp0
S'a'
p1
(dp2
S'digit4attempted'
p3
I0
sS'logins'
p4
I2
sS'digit7attempted'
p5
I1
sS'digit2attempted'
p6
I0
sS'digit6attempted'
p7
I0
sS'digit5attempted'
p8
I0
sS'digit0attempted'
p9
I0
sS'digit8attempted'
p10
I0
sS'digit9attempted'
p11
I0
sS'digit3attempted'
p12
I0
sS'digit1attempted'
p13
I0
ssS'we'
p14
(dp15
S'digit4attempted'
p16
I0
sS'logins'
p17
I1
sS'digit7attempted'
p18
I0
sS'digit2attempted'
p19
I0
sS'digit6attempted'
p20
I0
sS'digit5attempted'
p21
I0
sS'digit0attempted'
p22
I0
sS'digit8attempted'
p23
I0
sS'digit9attempted'
p24
I0
sS'digit3attempted'
p25
I0
sS'digit1attempted'
p26
I0
ssS'e'
p27
(dp28
S'digit4attempted'
p29
I0
sS'logins'
p30
I6
sS'digit7attempted'
p31
I0
sS'digit2attempted'
p32
I0
sS'digit6attempted'
p33
I0
sS'digit5attempted'
p34
I0
sS'digit0attempted'
p35
I0
sS'digit8attempted'
p36
I0
sS'digit9attempted'
p37
I0
sS'digit3attempted'
p38
I0
sS'digit1attempted'
p39
I0
ssS'f'
p40
(dp41
S'digit4attempted'
p42
I0
sS'logins'
p43
I1
sS'digit7attempted'
p44
I0
sS'digit2attempted'
p45
I0
sS'digit6attempted'
p46
I0
sS'digit5attempted'
p47
I0
sS'digit0attempted'
p48
I0
sS'digit8attempted'
p49
I0
sS'digit9attempted'
p50
I0
sS'digit3attempted'
p51
I0
sS'digit1attempted'
p52
I0
ssS'Everest'
p53
(dp54
S'digit4attempted'
p55
I3
sS'logins'
p56
I4
sS'digit7attempted'
p57
I1
sS'digit2attempted'
p58
I0
sS'digit6attempted'
p59
I4
sS'digit5attempted'
p60
I1
sS'digit0attempted'
p61
I1
sS'digit8attempted'
p62
I3
sS'digit9attempted'
p63
I1
sS'digit3attempted'
p64
I2
sS'digit1attempted'
p65
I0
ssS'w'
p66
(dp67
S'digit4attempted'
p68
I0
sS'logins'
p69
I1
sS'digit7attempted'
p70
I0
sS'digit2attempted'
p71
I0
sS'digit6attempted'
p72
I0
sS'digit5attempted'
p73
I0
sS'digit0attempted'
p74
I0
sS'digit8attempted'
p75
I0
sS'digit9attempted'
p76
I0
sS'digit3attempted'
p77
I0
sS'digit1attempted'
p78
I0
ss.