(dp0
S''
p1
(dp2
S'digit2answers'
p3
(lp4
I1
asS'digit7attempted'
p5
I0
sS'digit6attempted'
p6
I0
sS'digit0attempted'
p7
I0
sS'digit8answers'
p8
(lp9
sS'digit8attempted'
p10
<<<<<<< HEAD
I6
sS'digit7attempted'
p11
I0
sS'digit2attempted'
p12
=======
>>>>>>> tmp
I0
sS'digit0answers'
p11
(lp12
sS'digit9answers'
p13
(lp14
sS'digit3answers'
p15
(lp16
sS'digit1answers'
p17
<<<<<<< HEAD
I3
sS'digit8attempted'
p18
I0
sS'digit9attempted'
=======
(lp18
sS'aggregateAnswers'
>>>>>>> tmp
p19
(lp20
I1
aI1
asS'logins'
p21
I1
<<<<<<< HEAD
aI1
aI1
aI1
aI1
aI1
aI1
aI1
aI1
aI1
aI1
aI1
aI1
aI1
aI1
aI1
aI1
aI1
aI1
aI0
aI1
aI1
aI1
aI1
aI1
aI1
aI1
aI1
aI1
aI1
aI1
aI1
aI1
aI1
aI1
aI1
aI1
aI1
aI0
aI1
aI1
aI1
aI1
aI1
aI1
aI1
aI1
aI1
aI1
aI1
aI1
aI1
aI1
aI1
aI1
aI1
aI1
aI1
aI1
aI1
aI1
aI1
aI1
aI1
aI0
asS'digit9answers'
=======
sS'digit2attempted'
p22
I1
sS'digit7answers'
>>>>>>> tmp
p23
(lp24
sS'digit5answers'
p25
(lp26
sS'digit1attempted'
p27
I0
sS'digit4attempted'
p28
<<<<<<< HEAD
(lp29
sS'digit3answers'
p30
(lp31
sS'digit8answers'
p32
(lp33
ssS'lol'
=======
I1
sS'digit6answers'
p29
(lp30
sS'digit4answers'
p31
(lp32
I1
asS'digit5attempted'
p33
I0
sS'digit9attempted'
>>>>>>> tmp
p34
I0
sS'digit3attempted'
p35
I0
ssS'e'
p36
(dp37
S'digit2answers'
p38
(lp39
I1
aI1
asS'digit7attempted'
p40
I3
sS'digit6attempted'
p41
<<<<<<< HEAD
(lp42
sS'logins'
p43
I1
sS'digit7attempted'
p44
I0
sS'digit2attempted'
p45
=======
I2
sS'digit0attempted'
p42
I3
sS'digit8answers'
p43
(lp44
>>>>>>> tmp
I0
aI1
aI1
aI1
aI0
asS'digit8attempted'
p45
I5
sS'digit0answers'
p46
(lp47
I0
aI1
aI1
asS'digit9answers'
p48
(lp49
I1
aI1
asS'digit3answers'
p50
<<<<<<< HEAD
I3
sS'digit8attempted'
p51
I0
sS'digit9attempted'
=======
(lp51
I1
aI1
aI1
aI1
asS'digit1answers'
>>>>>>> tmp
p52
(lp53
I0
<<<<<<< HEAD
sS'digit3attempted'
p53
I0
sS'digit0answers'
=======
aI1
aI0
asS'aggregateAnswers'
>>>>>>> tmp
p54
(lp55
I1
aI1
<<<<<<< HEAD
=======
aI0
aI1
>>>>>>> tmp
aI1
aI1
aI1
aI1
<<<<<<< HEAD
aI1
aI1
=======
aI0
aI1
aI1
aI0
aI1
>>>>>>> tmp
aI1
aI1
aI0
aI0
aI1
aI1
aI1
aI1
aI1
<<<<<<< HEAD
aI1
aI1
aI0
asS'digit9answers'
p56
(lp57
sS'digit5answers'
p58
(lp59
sS'digit1attempted'
p60
I0
sS'digit7answers'
p61
(lp62
sS'digit3answers'
p63
(lp64
sS'digit8answers'
p65
(lp66
ssS'everest'
p67
(dp68
S'digit1answers'
p69
(lp70
sS'digit2answers'
p71
(lp72
sS'digit4attempted'
p73
I0
=======
aI0
aI1
aI0
aI1
aI1
aI1
asS'logins'
p56
I9
sS'digit2attempted'
p57
I2
sS'digit7answers'
p58
(lp59
I1
aI0
aI1
asS'digit5answers'
p60
(lp61
I1
aI1
aI1
asS'digit1attempted'
p62
I3
sS'digit4attempted'
p63
I1
>>>>>>> tmp
sS'digit6answers'
p64
(lp65
I1
<<<<<<< HEAD
sS'digit7attempted'
p77
I0
sS'digit2attempted'
p78
I0
sS'digit4answers'
p79
(lp80
sS'digit6attempted'
p81
=======
aI0
asS'digit4answers'
p66
(lp67
I1
asS'digit5attempted'
p68
I3
sS'digit9attempted'
p69
I2
sS'digit3attempted'
p70
I4
ssS'd'
p71
(dp72
S'digit2answers'
p73
(lp74
I1
aI1
aI1
asS'digit7attempted'
p75
>>>>>>> tmp
I0
sS'digit6attempted'
p76
I0
sS'digit0attempted'
<<<<<<< HEAD
p83
I0
sS'digit8attempted'
p84
I0
sS'digit9attempted'
p85
I0
sS'digit3attempted'
p86
=======
p77
I2
sS'digit8answers'
p78
(lp79
>>>>>>> tmp
I0
aI1
aI0
asS'digit8attempted'
p80
I3
sS'digit0answers'
p81
(lp82
I1
aI1
asS'digit9answers'
p83
(lp84
sS'digit3answers'
p85
(lp86
I1
aI0
asS'digit1answers'
p87
(lp88
I1
aI1
aI1
asS'aggregateAnswers'
p89
(lp90
<<<<<<< HEAD
sS'digit5answers'
=======
I0
aI1
aI1
aI1
aI1
aI1
aI0
aI1
aI1
aI1
aI1
aI1
aI1
aI0
aI1
aI1
aI1
aI0
asS'logins'
>>>>>>> tmp
p91
I3
sS'digit2attempted'
p92
I3
sS'digit7answers'
p93
<<<<<<< HEAD
I0
sS'digit7answers'
p94
(lp95
sS'digit3answers'
p96
(lp97
sS'digit8answers'
p98
(lp99
=======
(lp94
sS'digit5answers'
p95
(lp96
I1
aI1
asS'digit1attempted'
p97
I3
sS'digit4attempted'
p98
I3
sS'digit6answers'
p99
(lp100
sS'digit4answers'
p101
(lp102
I1
aI0
aI1
asS'digit5attempted'
p103
I2
sS'digit9attempted'
p104
I0
sS'digit3attempted'
p105
I2
ssS'g'
p106
(dp107
S'digit2answers'
p108
(lp109
I1
aI1
asS'digit7attempted'
p110
I0
sS'digit6attempted'
p111
I1
sS'digit0attempted'
p112
I4
sS'digit8answers'
p113
(lp114
I1
asS'logins'
p115
I3
sS'digit0answers'
p116
(lp117
I1
aI1
aI1
aI1
asS'digit9answers'
p118
(lp119
I1
asS'digit2attempted'
p120
I2
sS'digit1answers'
p121
(lp122
sS'aggregateAnswers'
p123
(lp124
I1
aI1
aI0
aI1
aI1
aI1
aI1
aI1
aI1
aI1
aI1
aI1
aI1
aI1
asS'digit8attempted'
p125
I1
sS'digit3answers'
p126
(lp127
I1
asS'digit7answers'
p128
(lp129
sS'digit4attempted'
p130
I3
sS'digit1attempted'
p131
I0
sS'digit5answers'
p132
(lp133
I1
asS'digit6answers'
p134
(lp135
I0
asS'digit4answers'
p136
(lp137
I1
aI1
aI1
asS'digit5attempted'
p138
I1
sS'digit9attempted'
p139
I1
sS'digit3attempted'
p140
I1
ssS'f'
p141
(dp142
S'digit2answers'
p143
(lp144
sS'digit7attempted'
p145
I0
sS'digit6attempted'
p146
I0
sS'digit0attempted'
p147
I2
sS'digit8answers'
p148
(lp149
sS'digit8attempted'
p150
I0
sS'digit0answers'
p151
(lp152
I1
aI1
asS'digit9answers'
p153
(lp154
sS'digit3answers'
p155
(lp156
I1
asS'digit1answers'
p157
(lp158
sS'aggregateAnswers'
p159
(lp160
I1
aI1
aI1
aI1
aI1
asS'logins'
p161
I2
sS'digit2attempted'
p162
I0
sS'digit7answers'
p163
(lp164
sS'digit5answers'
p165
(lp166
sS'digit1attempted'
p167
I0
sS'digit4attempted'
p168
I2
sS'digit6answers'
p169
(lp170
sS'digit4answers'
p171
(lp172
I1
aI1
asS'digit5attempted'
p173
I0
sS'digit9attempted'
p174
I0
sS'digit3attempted'
p175
I1
ssS'h'
p176
(dp177
S'digit2answers'
p178
(lp179
I1
asS'digit7attempted'
p180
I0
sS'digit6attempted'
p181
I0
sS'digit0attempted'
p182
I0
sS'digit8answers'
p183
(lp184
sS'logins'
p185
I1
sS'digit0answers'
p186
(lp187
sS'digit9answers'
p188
(lp189
sS'digit2attempted'
p190
I1
sS'digit1answers'
p191
(lp192
sS'aggregateAnswers'
p193
(lp194
I1
aI1
aI1
aI1
aI0
asS'digit8attempted'
p195
I0
sS'digit3answers'
p196
(lp197
I1
asS'digit7answers'
p198
(lp199
sS'digit4attempted'
p200
I2
sS'digit1attempted'
p201
I0
sS'digit5answers'
p202
(lp203
I1
asS'digit6answers'
p204
(lp205
sS'digit4answers'
p206
(lp207
I1
aI0
asS'digit5attempted'
p208
I1
sS'digit9attempted'
p209
I0
sS'digit3attempted'
p210
I1
ssS'carly'
p211
(dp212
S'digit2answers'
p213
(lp214
I1
asS'digit7attempted'
p215
I4
sS'digit6attempted'
p216
I1
sS'digit0attempted'
p217
I6
sS'digit8answers'
p218
(lp219
I0
aI0
aI1
asS'logins'
p220
I1
sS'digit0answers'
p221
(lp222
I0
aI1
aI0
aI0
aI1
aI1
asS'digit9answers'
p223
(lp224
I1
aI0
aI1
aI1
aI0
asS'digit2attempted'
p225
I1
sS'digit1answers'
p226
(lp227
I1
aI0
aI1
aI1
asS'aggregateAnswers'
p228
(lp229
I1
aI1
aI1
aI0
aI0
aI0
aI1
aI1
aI0
aI0
aI1
aI1
aI1
aI0
aI1
aI0
aI0
aI1
aI1
aI1
aI0
aI1
aI0
aI1
aI0
aI1
aI1
aI0
aI1
aI1
aI0
aI1
asS'digit8attempted'
p230
I3
sS'digit3answers'
p231
(lp232
I1
aI0
aI1
aI0
asS'digit7answers'
p233
(lp234
I0
aI0
aI1
aI0
asS'digit4attempted'
p235
I2
sS'digit1attempted'
p236
I4
sS'digit5answers'
p237
(lp238
I1
aI1
asS'digit6answers'
p239
(lp240
I1
asS'digit4answers'
p241
(lp242
I1
aI1
asS'digit5attempted'
p243
I2
sS'digit9attempted'
p244
I5
sS'digit3attempted'
p245
I4
ssS'Rachel'
p246
(dp247
S'digit2answers'
p248
(lp249
sS'digit7attempted'
p250
I5
sS'digit6attempted'
p251
I2
sS'digit0attempted'
p252
I1
sS'digit8answers'
p253
(lp254
I0
aI1
asS'digit8attempted'
p255
I2
sS'digit0answers'
p256
(lp257
I1
asS'digit9answers'
p258
(lp259
I1
aI1
aI1
aI1
aI1
asS'digit3answers'
p260
(lp261
I0
asS'digit1answers'
p262
(lp263
I1
aI1
asS'aggregateAnswers'
p264
(lp265
I0
aI0
aI0
aI0
aI1
aI1
aI0
aI0
aI1
aI1
aI1
aI1
aI1
aI1
aI0
aI1
aI1
aI0
aI1
aI1
aI1
asS'logins'
p266
I1
sS'digit2attempted'
p267
I0
sS'digit7answers'
p268
(lp269
I0
aI0
aI0
aI0
aI0
asS'digit5answers'
p270
(lp271
I1
asS'digit1attempted'
p272
I2
sS'digit4attempted'
p273
I2
sS'digit6answers'
p274
(lp275
I1
aI1
asS'digit4answers'
p276
(lp277
I0
aI1
asS'digit5attempted'
p278
I1
sS'digit9attempted'
p279
I5
sS'digit3attempted'
p280
I1
ssS'l'
p281
(dp282
S'digit2answers'
p283
(lp284
I1
asS'digit7attempted'
p285
I1
sS'digit6attempted'
p286
I0
sS'digit0attempted'
p287
I0
sS'digit8answers'
p288
(lp289
sS'logins'
p290
I2
sS'digit0answers'
p291
(lp292
sS'digit9answers'
p293
(lp294
sS'digit2attempted'
p295
I1
sS'digit1answers'
p296
(lp297
sS'aggregateAnswers'
p298
(lp299
I1
aI1
aI1
aI0
asS'digit8attempted'
p300
I0
sS'digit3answers'
p301
(lp302
I1
aI1
asS'digit7answers'
p303
(lp304
I0
asS'digit4attempted'
p305
I0
sS'digit1attempted'
p306
I0
sS'digit5answers'
p307
(lp308
sS'digit6answers'
p309
(lp310
sS'digit4answers'
p311
(lp312
sS'digit5attempted'
p313
I0
sS'digit9attempted'
p314
I0
sS'digit3attempted'
p315
I2
ssS'n'
p316
(dp317
S'digit2answers'
p318
(lp319
sS'digit7attempted'
p320
I1
sS'digit6attempted'
p321
I2
sS'digit0attempted'
p322
I3
sS'digit8answers'
p323
(lp324
I1
aI0
asS'digit8attempted'
p325
I2
sS'digit0answers'
p326
(lp327
I1
aI1
aI1
asS'digit9answers'
p328
(lp329
I1
asS'digit3answers'
p330
(lp331
I1
aI1
asS'digit1answers'
p332
(lp333
I1
aI0
asS'aggregateAnswers'
p334
(lp335
I1
aI1
aI1
aI0
aI1
aI1
aI1
aI1
aI1
aI0
aI1
aI1
aI1
aI1
aI0
aI1
asS'logins'
p336
I1
sS'digit2attempted'
p337
I0
sS'digit7answers'
p338
(lp339
I1
asS'digit5answers'
p340
(lp341
I1
asS'digit1attempted'
p342
I2
sS'digit4attempted'
p343
I2
sS'digit6answers'
p344
(lp345
I0
aI1
asS'digit4answers'
p346
(lp347
I1
aI1
asS'digit5attempted'
p348
I1
sS'digit9attempted'
p349
I1
sS'digit3attempted'
p350
I2
ssS'p'
p351
(dp352
S'digit2answers'
p353
(lp354
I1
asS'digit7attempted'
p355
I2
sS'digit6attempted'
p356
I0
sS'digit0attempted'
p357
I2
sS'digit8answers'
p358
(lp359
I1
asS'digit8attempted'
p360
I1
sS'digit0answers'
p361
(lp362
I0
aI1
asS'digit9answers'
p363
(lp364
I1
asS'digit3answers'
p365
(lp366
I1
asS'digit1answers'
p367
(lp368
sS'aggregateAnswers'
p369
(lp370
I1
aI0
aI1
aI1
aI1
aI1
aI0
aI1
aI1
aI1
asS'logins'
p371
I1
sS'digit2attempted'
p372
I1
sS'digit7answers'
p373
(lp374
I1
aI1
asS'digit5answers'
p375
(lp376
I1
asS'digit1attempted'
p377
I0
sS'digit4attempted'
p378
I1
sS'digit6answers'
p379
(lp380
sS'digit4answers'
p381
(lp382
I0
asS'digit5attempted'
p383
I1
sS'digit9attempted'
p384
I1
sS'digit3attempted'
p385
I1
ssS't'
p386
(dp387
S'digit2answers'
p388
(lp389
sS'digit7attempted'
p390
I0
sS'digit6attempted'
p391
I0
sS'digit0attempted'
p392
I0
sS'digit8answers'
p393
(lp394
sS'digit8attempted'
p395
I0
sS'digit0answers'
p396
(lp397
sS'digit9answers'
p398
(lp399
sS'digit3answers'
p400
(lp401
I1
asS'digit1answers'
p402
(lp403
I1
asS'aggregateAnswers'
p404
(lp405
I1
aI1
asS'logins'
p406
I1
sS'digit2attempted'
p407
I0
sS'digit7answers'
p408
(lp409
sS'digit5answers'
p410
(lp411
sS'digit1attempted'
p412
I1
sS'digit4attempted'
p413
I0
sS'digit6answers'
p414
(lp415
sS'digit4answers'
p416
(lp417
sS'digit5attempted'
p418
I0
sS'digit9attempted'
p419
I0
sS'digit3attempted'
p420
I1
ssS'yert'
p421
(dp422
S'digit2answers'
p423
(lp424
I1
asS'digit7attempted'
p425
I1
sS'digit6attempted'
p426
I0
sS'digit0attempted'
p427
I1
sS'digit8answers'
p428
(lp429
I1
asS'logins'
p430
I1
sS'digit0answers'
p431
(lp432
I1
asS'digit9answers'
p433
(lp434
I0
aI1
aI0
asS'digit2attempted'
p435
I1
sS'digit1answers'
p436
(lp437
I1
aI1
asS'aggregateAnswers'
p438
(lp439
I1
aI1
aI0
aI1
aI1
aI1
aI1
aI1
aI1
aI0
aI1
aI1
asS'digit8attempted'
p440
I1
sS'digit3answers'
p441
(lp442
I1
aI1
asS'digit7answers'
p443
(lp444
I1
asS'digit4attempted'
p445
I1
sS'digit1attempted'
p446
I2
sS'digit5answers'
p447
(lp448
sS'digit6answers'
p449
(lp450
sS'digit4answers'
p451
(lp452
I1
asS'digit5attempted'
p453
I0
sS'digit9attempted'
p454
I3
sS'digit3attempted'
p455
I2
ssS'y'
p456
(dp457
S'digit2answers'
p458
(lp459
sS'digit7attempted'
p460
I0
sS'digit6attempted'
p461
I0
sS'digit0attempted'
p462
I0
sS'digit8answers'
p463
(lp464
sS'digit8attempted'
p465
I0
sS'digit0answers'
p466
(lp467
sS'digit9answers'
p468
(lp469
sS'digit3answers'
p470
(lp471
sS'digit1answers'
p472
(lp473
sS'aggregateAnswers'
p474
(lp475
sS'logins'
p476
I1
sS'digit2attempted'
p477
I0
sS'digit7answers'
p478
(lp479
sS'digit5answers'
p480
(lp481
sS'digit1attempted'
p482
I0
sS'digit4attempted'
p483
I0
sS'digit6answers'
p484
(lp485
sS'digit4answers'
p486
(lp487
sS'digit5attempted'
p488
I0
sS'digit9attempted'
p489
I0
sS'digit3attempted'
p490
I0
ssS'k'
p491
(dp492
S'digit2answers'
p493
(lp494
sS'digit7attempted'
p495
I1
sS'digit6attempted'
p496
I0
sS'digit0attempted'
p497
I0
sS'digit8answers'
p498
(lp499
I1
asS'digit8attempted'
p500
I1
sS'digit0answers'
p501
(lp502
sS'digit9answers'
p503
(lp504
sS'digit3answers'
p505
(lp506
sS'digit1answers'
p507
(lp508
I1
asS'aggregateAnswers'
p509
(lp510
I1
aI1
aI1
aI0
asS'logins'
p511
I1
sS'digit2attempted'
p512
I0
sS'digit7answers'
p513
(lp514
I0
asS'digit5answers'
p515
(lp516
I1
asS'digit1attempted'
p517
I1
sS'digit4attempted'
p518
I0
sS'digit6answers'
p519
(lp520
sS'digit4answers'
p521
(lp522
sS'digit5attempted'
p523
I1
sS'digit9attempted'
p524
I0
sS'digit3attempted'
p525
I0
>>>>>>> tmp
ss.