(dp0
S''
p1
(dp2
S'digit2answers'
p3
(lp4
I1
asS'digit7attempted'
p5
I0
sS'digit6attempted'
p6
I0
sS'digit0attempted'
p7
I0
sS'digit8answers'
p8
(lp9
sS'logins'
p10
I1
sS'digit0answers'
p11
(lp12
sS'digit9answers'
p13
(lp14
sS'digit2attempted'
p15
I1
sS'digit1answers'
p16
(lp17
sS'aggregateAnswers'
p18
(lp19
I1
aI1
asS'digit8attempted'
p20
I0
sS'digit3answers'
p21
(lp22
sS'digit7answers'
p23
(lp24
sS'digit4attempted'
p25
I1
sS'digit1attempted'
p26
I0
sS'digit5answers'
p27
(lp28
sS'digit6answers'
p29
(lp30
sS'digit4answers'
p31
(lp32
I1
asS'digit5attempted'
p33
I0
sS'digit9attempted'
p34
I0
sS'digit3attempted'
p35
I0
ssS'j'
p36
(dp37
S'digit2answers'
p38
(lp39
sS'digit7attempted'
p40
I1
sS'digit6attempted'
p41
I0
sS'digit0attempted'
p42
I1
sS'digit8answers'
p43
(lp44
sS'digit8attempted'
p45
I0
sS'digit0answers'
p46
(lp47
I1
asS'digit9answers'
p48
(lp49
sS'digit3answers'
p50
(lp51
sS'digit1answers'
p52
(lp53
I1
asS'aggregateAnswers'
p54
(lp55
I1
aI1
aI1
aI1
asS'logins'
p56
I1
sS'digit2attempted'
p57
I0
sS'digit7answers'
p58
(lp59
I1
asS'digit5answers'
p60
(lp61
sS'digit1attempted'
p62
I1
sS'digit4attempted'
p63
I1
sS'digit6answers'
p64
(lp65
sS'digit4answers'
p66
(lp67
I1
asS'digit5attempted'
p68
I0
sS'digit9attempted'
p69
I0
sS'digit3attempted'
p70
I0
ssS'e'
p71
(dp72
S'digit2answers'
p73
(lp74
I1
aI1
asS'digit7attempted'
p75
I3
sS'digit6attempted'
p76
I2
sS'digit0attempted'
p77
I3
sS'digit8answers'
p78
(lp79
I0
aI1
aI1
aI1
aI0
asS'logins'
p80
I10
sS'digit0answers'
p81
(lp82
I0
aI1
aI1
asS'digit9answers'
p83
(lp84
I1
aI1
asS'digit2attempted'
p85
I2
sS'digit1answers'
p86
(lp87
I0
aI1
aI0
asS'aggregateAnswers'
p88
(lp89
I1
aI1
aI0
aI1
aI1
aI1
aI1
aI1
aI0
aI1
aI1
aI0
aI1
aI1
aI1
aI0
aI0
aI1
aI1
aI1
aI1
aI1
aI0
aI1
aI0
aI1
aI1
aI1
asS'digit8attempted'
p90
I5
sS'digit3answers'
p91
(lp92
I1
aI1
aI1
aI1
asS'digit7answers'
p93
(lp94
I1
aI0
aI1
asS'digit4attempted'
p95
I1
sS'digit1attempted'
p96
I3
sS'digit5answers'
p97
(lp98
I1
aI1
aI1
asS'digit6answers'
p99
(lp100
I1
aI0
asS'digit4answers'
p101
(lp102
I1
asS'digit5attempted'
p103
I3
sS'digit9attempted'
p104
I2
sS'digit3attempted'
p105
I4
ssS'd'
p106
(dp107
S'digit2answers'
p108
(lp109
I1
aI1
aI1
asS'digit7attempted'
p110
I0
sS'digit6attempted'
p111
I0
sS'digit0attempted'
p112
I2
sS'digit8answers'
p113
(lp114
I0
aI1
aI0
asS'logins'
p115
I3
sS'digit0answers'
p116
(lp117
I1
aI1
asS'digit9answers'
p118
(lp119
sS'digit2attempted'
p120
I3
sS'digit1answers'
p121
(lp122
I1
aI1
aI1
asS'aggregateAnswers'
p123
(lp124
I0
aI1
aI1
aI1
aI1
aI1
aI0
aI1
aI1
aI1
aI1
aI1
aI1
aI0
aI1
aI1
aI1
aI0
asS'digit8attempted'
p125
I3
sS'digit3answers'
p126
(lp127
I1
aI0
asS'digit7answers'
p128
(lp129
sS'digit4attempted'
p130
I3
sS'digit1attempted'
p131
I3
sS'digit5answers'
p132
(lp133
I1
aI1
asS'digit6answers'
p134
(lp135
sS'digit4answers'
p136
(lp137
I1
aI0
aI1
asS'digit5attempted'
p138
I2
sS'digit9attempted'
p139
I0
sS'digit3attempted'
p140
I2
ssS'g'
p141
(dp142
S'digit2answers'
p143
(lp144
I1
aI1
asS'digit7attempted'
p145
I0
sS'digit6attempted'
p146
I1
sS'digit0attempted'
p147
I4
sS'digit8answers'
p148
(lp149
I1
asS'digit8attempted'
p150
I1
sS'digit0answers'
p151
(lp152
I1
aI1
aI1
aI1
asS'digit9answers'
p153
(lp154
I1
asS'digit3answers'
p155
(lp156
I1
aI1
aI1
asS'digit1answers'
p157
(lp158
sS'aggregateAnswers'
p159
(lp160
I1
aI1
aI0
aI1
aI1
aI1
aI1
aI1
aI1
aI1
aI1
aI1
aI1
aI1
aI1
aI1
asS'logins'
p161
I4
sS'digit2attempted'
p162
I2
sS'digit7answers'
p163
(lp164
sS'digit5answers'
p165
(lp166
I1
asS'digit1attempted'
p167
I0
sS'digit4attempted'
p168
I3
sS'digit6answers'
p169
(lp170
I0
asS'digit4answers'
p171
(lp172
I1
aI1
aI1
asS'digit5attempted'
p173
I1
sS'digit9attempted'
p174
I1
sS'digit3attempted'
p175
I3
ssS'f'
p176
(dp177
S'digit2answers'
p178
(lp179
sS'digit7attempted'
p180
I0
sS'digit6attempted'
p181
I0
sS'digit0attempted'
p182
I2
sS'digit8answers'
p183
(lp184
sS'logins'
p185
I2
sS'digit0answers'
p186
(lp187
I1
aI1
asS'digit9answers'
p188
(lp189
sS'digit2attempted'
p190
I0
sS'digit1answers'
p191
(lp192
sS'aggregateAnswers'
p193
(lp194
I1
aI1
aI1
aI1
aI1
asS'digit8attempted'
p195
I0
sS'digit3answers'
p196
(lp197
I1
asS'digit7answers'
p198
(lp199
sS'digit4attempted'
p200
I2
sS'digit1attempted'
p201
I0
sS'digit5answers'
p202
(lp203
sS'digit6answers'
p204
(lp205
sS'digit4answers'
p206
(lp207
I1
aI1
asS'digit5attempted'
p208
I0
sS'digit9attempted'
p209
I0
sS'digit3attempted'
p210
I1
ssS'h'
p211
(dp212
S'digit2answers'
p213
(lp214
I1
asS'digit7attempted'
p215
I0
sS'digit6attempted'
p216
I0
sS'digit0attempted'
p217
I0
sS'digit8answers'
p218
(lp219
sS'digit8attempted'
p220
I0
sS'digit0answers'
p221
(lp222
sS'digit9answers'
p223
(lp224
sS'digit3answers'
p225
(lp226
I1
asS'digit1answers'
p227
(lp228
sS'aggregateAnswers'
p229
(lp230
I1
aI1
aI1
aI1
aI0
asS'logins'
p231
I1
sS'digit2attempted'
p232
I1
sS'digit7answers'
p233
(lp234
sS'digit5answers'
p235
(lp236
I1
asS'digit1attempted'
p237
I0
sS'digit4attempted'
p238
I2
sS'digit6answers'
p239
(lp240
sS'digit4answers'
p241
(lp242
I1
aI0
asS'digit5attempted'
p243
I1
sS'digit9attempted'
p244
I0
sS'digit3attempted'
p245
I1
ssS'carly'
p246
(dp247
S'digit2answers'
p248
(lp249
I1
asS'digit7attempted'
p250
I4
sS'digit6attempted'
p251
I1
sS'digit0attempted'
p252
I6
sS'digit8answers'
p253
(lp254
I0
aI0
aI1
asS'digit8attempted'
p255
I3
sS'digit0answers'
p256
(lp257
I0
aI1
aI0
aI0
aI1
aI1
asS'digit9answers'
p258
(lp259
I1
aI0
aI1
aI1
aI0
asS'digit3answers'
p260
(lp261
I1
aI0
aI1
aI0
asS'digit1answers'
p262
(lp263
I1
aI0
aI1
aI1
asS'aggregateAnswers'
p264
(lp265
I1
aI1
aI1
aI0
aI0
aI0
aI1
aI1
aI0
aI0
aI1
aI1
aI1
aI0
aI1
aI0
aI0
aI1
aI1
aI1
aI0
aI1
aI0
aI1
aI0
aI1
aI1
aI0
aI1
aI1
aI0
aI1
asS'logins'
p266
I1
sS'digit2attempted'
p267
I1
sS'digit7answers'
p268
(lp269
I0
aI0
aI1
aI0
asS'digit5answers'
p270
(lp271
I1
aI1
asS'digit1attempted'
p272
I4
sS'digit4attempted'
p273
I2
sS'digit6answers'
p274
(lp275
I1
asS'digit4answers'
p276
(lp277
I1
aI1
asS'digit5attempted'
p278
I2
sS'digit9attempted'
p279
I5
sS'digit3attempted'
p280
I4
ssS'Rachel'
p281
(dp282
S'digit2answers'
p283
(lp284
sS'digit7attempted'
p285
I5
sS'digit6attempted'
p286
I2
sS'digit0attempted'
p287
I1
sS'digit8answers'
p288
(lp289
I0
aI1
asS'logins'
p290
I1
sS'digit0answers'
p291
(lp292
I1
asS'digit9answers'
p293
(lp294
I1
aI1
aI1
aI1
aI1
asS'digit2attempted'
p295
I0
sS'digit1answers'
p296
(lp297
I1
aI1
asS'aggregateAnswers'
p298
(lp299
I0
aI0
aI0
aI0
aI1
aI1
aI0
aI0
aI1
aI1
aI1
aI1
aI1
aI1
aI0
aI1
aI1
aI0
aI1
aI1
aI1
asS'digit8attempted'
p300
I2
sS'digit3answers'
p301
(lp302
I0
asS'digit7answers'
p303
(lp304
I0
aI0
aI0
aI0
aI0
asS'digit4attempted'
p305
I2
sS'digit1attempted'
p306
I2
sS'digit5answers'
p307
(lp308
I1
asS'digit6answers'
p309
(lp310
I1
aI1
asS'digit4answers'
p311
(lp312
I0
aI1
asS'digit5attempted'
p313
I1
sS'digit9attempted'
p314
I5
sS'digit3attempted'
p315
I1
ssS'l'
p316
(dp317
S'digit2answers'
p318
(lp319
I1
asS'digit7attempted'
p320
I1
sS'digit6attempted'
p321
I0
sS'digit0attempted'
p322
I1
sS'digit8answers'
p323
(lp324
sS'digit8attempted'
p325
I0
sS'digit0answers'
p326
(lp327
I1
asS'digit9answers'
p328
(lp329
I1
asS'digit3answers'
p330
(lp331
I1
aI1
asS'digit1answers'
p332
(lp333
sS'aggregateAnswers'
p334
(lp335
I1
aI1
aI1
aI0
aI1
aI1
asS'logins'
p336
I3
sS'digit2attempted'
p337
I1
sS'digit7answers'
p338
(lp339
I0
asS'digit5answers'
p340
(lp341
sS'digit1attempted'
p342
I0
sS'digit4attempted'
p343
I0
sS'digit6answers'
p344
(lp345
sS'digit4answers'
p346
(lp347
sS'digit5attempted'
p348
I0
sS'digit9attempted'
p349
I1
sS'digit3attempted'
p350
I2
ssS'n'
p351
(dp352
S'digit2answers'
p353
(lp354
sS'digit7attempted'
p355
I1
sS'digit6attempted'
p356
I2
sS'digit0attempted'
p357
I3
sS'digit8answers'
p358
(lp359
I1
aI0
asS'logins'
p360
I1
sS'digit0answers'
p361
(lp362
I1
aI1
aI1
asS'digit9answers'
p363
(lp364
I1
asS'digit2attempted'
p365
I0
sS'digit1answers'
p366
(lp367
I1
aI0
asS'aggregateAnswers'
p368
(lp369
I1
aI1
aI1
aI0
aI1
aI1
aI1
aI1
aI1
aI0
aI1
aI1
aI1
aI1
aI0
aI1
asS'digit8attempted'
p370
I2
sS'digit3answers'
p371
(lp372
I1
aI1
asS'digit7answers'
p373
(lp374
I1
asS'digit4attempted'
p375
I2
sS'digit1attempted'
p376
I2
sS'digit5answers'
p377
(lp378
I1
asS'digit6answers'
p379
(lp380
I0
aI1
asS'digit4answers'
p381
(lp382
I1
aI1
asS'digit5attempted'
p383
I1
sS'digit9attempted'
p384
I1
sS'digit3attempted'
p385
I2
ssS'p'
p386
(dp387
S'digit2answers'
p388
(lp389
I1
asS'digit7attempted'
p390
I2
sS'digit6attempted'
p391
I0
sS'digit0attempted'
p392
I2
sS'digit8answers'
p393
(lp394
I1
asS'logins'
p395
I2
sS'digit0answers'
p396
(lp397
I0
aI1
asS'digit9answers'
p398
(lp399
I1
asS'digit2attempted'
p400
I1
sS'digit1answers'
p401
(lp402
sS'aggregateAnswers'
p403
(lp404
I1
aI0
aI1
aI1
aI1
aI1
aI0
aI1
aI1
aI1
asS'digit8attempted'
p405
I1
sS'digit3answers'
p406
(lp407
I1
asS'digit7answers'
p408
(lp409
I1
aI1
asS'digit4attempted'
p410
I1
sS'digit1attempted'
p411
I0
sS'digit5answers'
p412
(lp413
I1
asS'digit6answers'
p414
(lp415
sS'digit4answers'
p416
(lp417
I0
asS'digit5attempted'
p418
I1
sS'digit9attempted'
p419
I1
sS'digit3attempted'
p420
I1
ssS't'
p421
(dp422
S'digit2answers'
p423
(lp424
sS'digit7attempted'
p425
I0
sS'digit6attempted'
p426
I0
sS'digit0attempted'
p427
I0
sS'digit8answers'
p428
(lp429
sS'logins'
p430
I1
sS'digit0answers'
p431
(lp432
sS'digit9answers'
p433
(lp434
sS'digit2attempted'
p435
I0
sS'digit1answers'
p436
(lp437
I1
asS'aggregateAnswers'
p438
(lp439
I1
aI1
asS'digit8attempted'
p440
I0
sS'digit3answers'
p441
(lp442
I1
asS'digit7answers'
p443
(lp444
sS'digit4attempted'
p445
I0
sS'digit1attempted'
p446
I1
sS'digit5answers'
p447
(lp448
sS'digit6answers'
p449
(lp450
sS'digit4answers'
p451
(lp452
sS'digit5attempted'
p453
I0
sS'digit9attempted'
p454
I0
sS'digit3attempted'
p455
I1
ssS'yert'
p456
(dp457
S'digit2answers'
p458
(lp459
I1
asS'digit7attempted'
p460
I1
sS'digit6attempted'
p461
I0
sS'digit0attempted'
p462
I1
sS'digit8answers'
p463
(lp464
I1
asS'digit8attempted'
p465
I1
sS'digit0answers'
p466
(lp467
I1
asS'digit9answers'
p468
(lp469
I0
aI1
aI0
asS'digit3answers'
p470
(lp471
I1
aI1
asS'digit1answers'
p472
(lp473
I1
aI1
asS'aggregateAnswers'
p474
(lp475
I1
aI1
aI0
aI1
aI1
aI1
aI1
aI1
aI1
aI0
aI1
aI1
asS'logins'
p476
I1
sS'digit2attempted'
p477
I1
sS'digit7answers'
p478
(lp479
I1
asS'digit5answers'
p480
(lp481
sS'digit1attempted'
p482
I2
sS'digit4attempted'
p483
I1
sS'digit6answers'
p484
(lp485
sS'digit4answers'
p486
(lp487
I1
asS'digit5attempted'
p488
I0
sS'digit9attempted'
p489
I3
sS'digit3attempted'
p490
I2
ssS'k'
p491
(dp492
S'digit2answers'
p493
(lp494
I1
asS'digit7attempted'
p495
I3
sS'digit6attempted'
p496
I1
sS'digit0attempted'
p497
I3
sS'digit8answers'
p498
(lp499
I1
aI0
asS'logins'
p500
I3
sS'digit0answers'
p501
(lp502
I0
aI1
aI1
asS'digit9answers'
p503
(lp504
I0
aI1
asS'digit2attempted'
p505
I1
sS'digit1answers'
p506
(lp507
I1
aI0
asS'aggregateAnswers'
p508
(lp509
I1
aI1
aI1
aI0
aI1
aI1
aI1
aI1
aI0
aI1
aI0
aI1
aI1
aI1
aI0
aI0
aI1
aI1
aI1
aI0
asS'digit8attempted'
p510
I2
sS'digit3answers'
p511
(lp512
I1
aI1
asS'digit7answers'
p513
(lp514
I0
aI1
aI1
asS'digit4attempted'
p515
I2
sS'digit1attempted'
p516
I2
sS'digit5answers'
p517
(lp518
I1
aI0
asS'digit6answers'
p519
(lp520
I1
asS'digit4answers'
p521
(lp522
I1
aI1
asS'digit5attempted'
p523
I2
sS'digit9attempted'
p524
I2
sS'digit3attempted'
p525
I2
ssS'y'
p526
(dp527
S'digit2answers'
p528
(lp529
sS'digit7attempted'
p530
I0
sS'digit6attempted'
p531
I0
sS'digit0attempted'
p532
I0
sS'digit8answers'
p533
(lp534
sS'logins'
p535
I1
sS'digit0answers'
p536
(lp537
sS'digit9answers'
p538
(lp539
sS'digit2attempted'
p540
I0
sS'digit1answers'
p541
(lp542
sS'aggregateAnswers'
p543
(lp544
sS'digit8attempted'
p545
I0
sS'digit3answers'
p546
(lp547
sS'digit7answers'
p548
(lp549
sS'digit4attempted'
p550
I0
sS'digit1attempted'
p551
I0
sS'digit5answers'
p552
(lp553
sS'digit6answers'
p554
(lp555
sS'digit4answers'
p556
(lp557
sS'digit5attempted'
p558
I0
sS'digit9attempted'
p559
I0
sS'digit3attempted'
p560
I0
ss.