(dp0
S''
p1
(dp2
S'digit1answers'
p3
(lp4
I0
aI0
aI0
aI0
aI0
aI0
asS'digit2answers'
p5
(lp6
I0
aI0
aI0
aI0
aI0
aI0
asS'digit4attempted'
p7
I0
sS'digit6answers'
p8
(lp9
I0
aI0
aI0
aI0
aI0
aI0
asS'logins'
p10
I1
sS'digit7attempted'
p11
I0
sS'digit2attempted'
p12
I0
sS'digit4answers'
p13
(lp14
I0
aI0
aI0
aI0
aI0
aI0
asS'digit6attempted'
p15
I0
sS'digit5attempted'
p16
I0
sS'digit0attempted'
p17
I0
sS'digit8attempted'
p18
I0
sS'digit9attempted'
p19
I0
sS'digit3attempted'
p20
I0
sS'digit0answers'
p21
(lp22
I0
aI0
aI0
aI0
aI0
aI0
asS'digit9answers'
p23
(lp24
I0
aI0
aI0
aI0
aI0
aI0
asS'digit5answers'
p25
(lp26
I0
aI0
aI0
aI0
aI0
aI0
asS'digit1attempted'
p27
I0
sS'digit7answers'
p28
(lp29
I0
aI0
aI0
aI0
aI0
aI0
asS'digit3answers'
p30
(lp31
I0
aI0
aI0
aI0
aI0
aI0
asS'digit8answers'
p32
(lp33
I0
aI0
aI0
aI0
aI0
aI0
assS'e'
p34
(dp35
S'digit1answers'
p36
(lp37
I0
aI0
aI0
aI0
aI0
aI0
aI0
aI0
aI0
asS'digit2answers'
p38
(lp39
I0
aI0
aI0
aI0
aI0
aI0
aI0
aI0
asS'digit4attempted'
p40
I1
sS'digit6answers'
p41
(lp42
I0
aI0
aI0
aI0
aI0
aI0
aI0
aI0
aI0
asS'logins'
p43
I12
sS'digit7attempted'
p44
I1
sS'digit2attempted'
p45
I2
sS'digit4answers'
p46
(lp47
I0
aI0
aI0
aI0
aI0
aI0
aI0
asS'digit6attempted'
p48
I3
sS'digit5attempted'
p49
I0
sS'digit0attempted'
p50
I4
sS'digit8attempted'
p51
I5
sS'digit9attempted'
p52
I1
sS'digit3attempted'
p53
I2
sS'digit0answers'
p54
(lp55
I0
aI0
aI0
aI0
aI0
aI0
aI0
aI0
aI0
aI0
asS'digit9answers'
p56
(lp57
I0
aI0
aI0
aI0
aI0
aI0
aI0
asS'digit5answers'
p58
(lp59
I0
aI0
aI0
aI0
aI0
aI0
asS'digit1attempted'
p60
I3
sS'digit7answers'
p61
(lp62
I0
aI0
aI0
aI0
aI0
aI0
aI0
asS'digit3answers'
p63
(lp64
I0
aI0
aI0
aI0
aI0
aI0
aI0
aI0
asS'digit8answers'
p65
(lp66
I0
aI0
aI0
aI0
aI0
aI0
aI0
aI0
aI0
aI0
aI0
ass.