(dp0
S'a'
p1
(dp2
S'digit4attempted'
p3
I4
sS'logins'
p4
I36
sS'digit7attempted'
p5
I2
sS'digit2attempted'
p6
I4
sS'digit6attempted'
p7
I7
sS'digit5attempted'
p8
I4
sS'digit0attempted'
p9
I3
sS'digit8attempted'
p10
I5
sS'digit9attempted'
p11
I4
sS'digit3attempted'
p12
I4
sS'digit1attempted'
p13
I4
ssS'everest'
p14
(dp15
S'digit4attempted'
p16
I4
sS'logins'
p17
I3
sS'digit7attempted'
p18
I1
sS'digit2attempted'
p19
I2
sS'digit6attempted'
p20
I4
sS'digit5attempted'
p21
I2
sS'digit0attempted'
p22
I7
sS'digit8attempted'
p23
I4
sS'digit9attempted'
p24
I2
sS'digit3attempted'
p25
I2
sS'digit1attempted'
p26
I0
ss.