(dp0
S'a'
p1
(dp2
S'digit4attempted'
p3
I0
sS'logins'
p4
I2
sS'digit7attempted'
p5
I1
sS'digit2attempted'
p6
I0
sS'digit6attempted'
p7
I0
sS'digit5attempted'
p8
I0
sS'digit0attempted'
p9
I0
sS'digit8attempted'
p10
I0
sS'digit9attempted'
p11
I0
sS'digit3attempted'
p12
I0
sS'digit1attempted'
p13
I0
ssS'Everest'
p14
(dp15
S'digit4attempted'
p16
I3
sS'logins'
p17
I4
sS'digit7attempted'
p18
I1
sS'digit2attempted'
p19
I0
sS'digit6attempted'
p20
I4
sS'digit5attempted'
p21
I1
sS'digit0attempted'
p22
I1
sS'digit8attempted'
p23
I3
sS'digit9attempted'
p24
I1
sS'digit3attempted'
p25
I2
sS'digit1attempted'
p26
I0
ss.